target datalayout = "e-m:e-p270:32:32-p271:32:32-p272:64:64-i64:64-i128:128-f80:128-n8:16:32:64-S128"
target triple = "x86_64-pc-linux-gnu"

%struct.PlaceHolderVar = type { %struct.Expr, ptr, ptr, ptr, i32, i32 }
%struct.Expr = type { i32 }
%struct.PlannerInfo = type { i32, ptr, ptr, i32, ptr, ptr, ptr, ptr, i32, ptr, ptr, ptr, ptr, ptr, ptr, ptr, ptr, i32, ptr, ptr, ptr, ptr, ptr, i8, ptr, ptr, ptr, ptr, ptr, i32, ptr, ptr, ptr, ptr, ptr, ptr, ptr, i32, ptr, ptr, ptr, i32, ptr, ptr, ptr, ptr, ptr, ptr, [8 x ptr], [8 x ptr], ptr, ptr, ptr, ptr, ptr, ptr, ptr, double, double, double, i32, i8, i8, i8, i8, i8, i8, i8, i32, ptr, ptr, i32, i8, i8, i32, ptr, ptr, ptr, ptr, ptr, ptr, i8, ptr }
%struct.Node = type { i32 }
%struct.PlaceHolderInfo = type { i32, i32, ptr, ptr, ptr, ptr, i32 }
%struct.ForEachState = type { ptr, i32 }
%struct.List = type { i32, i32, i32, ptr, [0 x %union.ListCell] }
%union.ListCell = type { ptr }

@.str = private unnamed_addr constant [41 x i8] c"too late to create a new PlaceHolderInfo\00", align 1
@.str.1 = private unnamed_addr constant [14 x i8] c"placeholder.c\00", align 1
@__func__.find_placeholder_info = private unnamed_addr constant [22 x i8] c"find_placeholder_info\00", align 1

; Function Attrs: nounwind uwtable
define internal void @find_placeholders_in_expr(ptr noundef %0, ptr noundef %1) #0 {
  %3 = alloca ptr, align 8
  %4 = alloca ptr, align 8
  %5 = alloca ptr, align 8
  %6 = alloca ptr, align 8
  %7 = alloca %struct.ForEachState, align 8
  %8 = alloca i32, align 4
  %9 = alloca ptr, align 8
  store ptr %0, ptr %3, align 8
  store ptr %1, ptr %4, align 8
  call void @llvm.lifetime.start.p0(i64 8, ptr %5) #6
  call void @llvm.lifetime.start.p0(i64 8, ptr %6) #6
  %10 = load ptr, ptr %4, align 8
  %11 = call ptr @pull_var_clause(ptr noundef %10, i32 noundef 26)
  store ptr %11, ptr %5, align 8
  call void @llvm.lifetime.start.p0(i64 16, ptr %7) #6
  %12 = getelementptr inbounds nuw %struct.ForEachState, ptr %7, i32 0, i32 0
  %13 = load ptr, ptr %5, align 8
  store ptr %13, ptr %12, align 8
  %14 = getelementptr inbounds nuw %struct.ForEachState, ptr %7, i32 0, i32 1
  store i32 0, ptr %14, align 8
  %15 = getelementptr i8, ptr %7, i64 12
  call void @llvm.memset.p0.i64(ptr align 4 %15, i8 0, i64 4, i1 false)
  br label %16

16:                                               ; preds = %57, %2
  %17 = getelementptr inbounds nuw %struct.ForEachState, ptr %7, i32 0, i32 0
  %18 = load ptr, ptr %17, align 8
  %19 = icmp ne ptr %18, null
  br i1 %19, label %20, label %37

20:                                               ; preds = %16
  %21 = getelementptr inbounds nuw %struct.ForEachState, ptr %7, i32 0, i32 1
  %22 = load i32, ptr %21, align 8
  %23 = getelementptr inbounds nuw %struct.ForEachState, ptr %7, i32 0, i32 0
  %24 = load ptr, ptr %23, align 8
  %25 = getelementptr inbounds nuw %struct.List, ptr %24, i32 0, i32 1
  %26 = load i32, ptr %25, align 4
  %27 = icmp slt i32 %22, %26
  br i1 %27, label %28, label %37

28:                                               ; preds = %20
  %29 = getelementptr inbounds nuw %struct.ForEachState, ptr %7, i32 0, i32 0
  %30 = load ptr, ptr %29, align 8
  %31 = getelementptr inbounds nuw %struct.List, ptr %30, i32 0, i32 3
  %32 = load ptr, ptr %31, align 8
  %33 = getelementptr inbounds nuw %struct.ForEachState, ptr %7, i32 0, i32 1
  %34 = load i32, ptr %33, align 8
  %35 = sext i32 %34 to i64
  %36 = getelementptr inbounds %union.ListCell, ptr %32, i64 %35
  store ptr %36, ptr %6, align 8
  br label %38

37:                                               ; preds = %20, %16
  store ptr null, ptr %6, align 8
  br label %38

38:                                               ; preds = %37, %28
  %39 = phi i32 [ 1, %28 ], [ 0, %37 ]
  %40 = icmp ne i32 %39, 0
  br i1 %40, label %42, label %41

41:                                               ; preds = %38
  store i32 2, ptr %8, align 4
  call void @llvm.lifetime.end.p0(i64 16, ptr %7) #6
  br label %61

42:                                               ; preds = %38
  call void @llvm.lifetime.start.p0(i64 8, ptr %9) #6
  %43 = load ptr, ptr %6, align 8
  %44 = load ptr, ptr %43, align 8
  store ptr %44, ptr %9, align 8
  %45 = load ptr, ptr %9, align 8
  %46 = getelementptr inbounds nuw %struct.Node, ptr %45, i32 0, i32 0
  %47 = load i32, ptr %46, align 4
  %48 = icmp eq i32 %47, 318
  br i1 %48, label %50, label %49

49:                                               ; preds = %42
  store i32 4, ptr %8, align 4
  br label %54

50:                                               ; preds = %42
  %51 = load ptr, ptr %3, align 8
  %52 = load ptr, ptr %9, align 8
  %53 = call ptr @find_placeholder_info(ptr noundef %51, ptr noundef %52)
  store i32 0, ptr %8, align 4
  br label %54

54:                                               ; preds = %50, %49
  call void @llvm.lifetime.end.p0(i64 8, ptr %9) #6
  %55 = load i32, ptr %8, align 4
  switch i32 %55, label %63 [
    i32 0, label %56
    i32 4, label %57
  ]

56:                                               ; preds = %54
  br label %57

57:                                               ; preds = %56, %54
  %58 = getelementptr inbounds nuw %struct.ForEachState, ptr %7, i32 0, i32 1
  %59 = load i32, ptr %58, align 8
  %60 = add i32 %59, 1
  store i32 %60, ptr %58, align 8
  br label %16, !llvm.loop !8

61:                                               ; preds = %41
  %62 = load ptr, ptr %5, align 8
  call void @list_free(ptr noundef %62)
  call void @llvm.lifetime.end.p0(i64 8, ptr %6) #6
  call void @llvm.lifetime.end.p0(i64 8, ptr %5) #6
  ret void

63:                                               ; preds = %54
  unreachable
}

; Function Attrs: inlinehint nounwind uwtable
define internal ptr @newNode(i64 noundef %0, i32 noundef %1) #2 {
  %3 = alloca i64, align 8
  %4 = alloca i32, align 4
  %5 = alloca ptr, align 8
  store i64 %0, ptr %3, align 8
  store i32 %1, ptr %4, align 4
  call void @llvm.lifetime.start.p0(i64 8, ptr %5) #6
  %6 = load i64, ptr %3, align 8
  %7 = call ptr @palloc0(i64 noundef %6)
  store ptr %7, ptr %5, align 8
  %8 = load i32, ptr %4, align 4
  %9 = load ptr, ptr %5, align 8
  %10 = getelementptr inbounds nuw %struct.Node, ptr %9, i32 0, i32 0
  store i32 %8, ptr %10, align 4
  %11 = load ptr, ptr %5, align 8
  call void @llvm.lifetime.end.p0(i64 8, ptr %5) #6
  ret ptr %11
}

; Function Attrs: nounwind uwtable
define dso_local ptr @find_placeholder_info(ptr noundef %0, ptr noundef %1) #0 {
  %3 = alloca ptr, align 8
  %4 = alloca ptr, align 8
  %5 = alloca ptr, align 8
  %6 = alloca ptr, align 8
  %7 = alloca ptr, align 8
  %8 = alloca i32, align 4
  %9 = alloca i32, align 4
  store ptr %0, ptr %4, align 8
  store ptr %1, ptr %5, align 8
  call void @llvm.lifetime.start.p0(i64 8, ptr %6) #6
  call void @llvm.lifetime.start.p0(i64 8, ptr %7) #6
  %10 = load ptr, ptr %5, align 8
  %11 = getelementptr inbounds nuw %struct.PlaceHolderVar, ptr %10, i32 0, i32 4
  %12 = load i32, ptr %11, align 8
  %13 = load ptr, ptr %4, align 8
  %14 = getelementptr inbounds nuw %struct.PlannerInfo, ptr %13, i32 0, i32 37
  %15 = load i32, ptr %14, align 8
  %16 = icmp ult i32 %12, %15
  br i1 %16, label %17, label %27

17:                                               ; preds = %2
  %18 = load ptr, ptr %4, align 8
  %19 = getelementptr inbounds nuw %struct.PlannerInfo, ptr %18, i32 0, i32 36
  %20 = load ptr, ptr %19, align 8
  %21 = load ptr, ptr %5, align 8
  %22 = getelementptr inbounds nuw %struct.PlaceHolderVar, ptr %21, i32 0, i32 4
  %23 = load i32, ptr %22, align 8
  %24 = zext i32 %23 to i64
  %25 = getelementptr inbounds nuw ptr, ptr %20, i64 %24
  %26 = load ptr, ptr %25, align 8
  store ptr %26, ptr %6, align 8
  br label %28

27:                                               ; preds = %2
  store ptr null, ptr %6, align 8
  br label %28

28:                                               ; preds = %27, %17
  %29 = load ptr, ptr %6, align 8
  %30 = icmp ne ptr %29, null
  br i1 %30, label %31, label %33

31:                                               ; preds = %28
  %32 = load ptr, ptr %6, align 8
  store ptr %32, ptr %3, align 8
  store i32 1, ptr %8, align 4
  br label %192

33:                                               ; preds = %28
  %34 = load ptr, ptr %4, align 8
  %35 = getelementptr inbounds nuw %struct.PlannerInfo, ptr %34, i32 0, i32 66
  %36 = load i8, ptr %35, align 1, !range !4, !noundef !5
  %37 = trunc i8 %36 to i1
  br i1 %37, label %38, label %49

38:                                               ; preds = %33
  br label %39

39:                                               ; preds = %38
  br i1 true, label %40, label %42

40:                                               ; preds = %39
  %41 = call zeroext i1 @errstart_cold(i32 noundef 21, ptr noundef null) #7
  br i1 %41, label %44, label %46

42:                                               ; preds = %39
  %43 = call zeroext i1 @errstart(i32 noundef 21, ptr noundef null)
  br i1 %43, label %44, label %46

44:                                               ; preds = %42, %40
  %45 = call i32 (ptr, ...) @errmsg_internal(ptr noundef @.str)
  call void @errfinish(ptr noundef @.str.1, i32 noundef 104, ptr noundef @__func__.find_placeholder_info)
  br label %46

46:                                               ; preds = %44, %42, %40
  unreachable

47:                                               ; No predecessors!
  br label %48

48:                                               ; preds = %47
  br label %49

49:                                               ; preds = %48, %33
  %50 = call ptr @newNode(i64 noundef 48, i32 noundef 323)
  store ptr %50, ptr %6, align 8
  %51 = load ptr, ptr %5, align 8
  %52 = getelementptr inbounds nuw %struct.PlaceHolderVar, ptr %51, i32 0, i32 4
  %53 = load i32, ptr %52, align 8
  %54 = load ptr, ptr %6, align 8
  %55 = getelementptr inbounds nuw %struct.PlaceHolderInfo, ptr %54, i32 0, i32 1
  store i32 %53, ptr %55, align 4
  %56 = load ptr, ptr %5, align 8
  %57 = call ptr @copyObjectImpl(ptr noundef %56)
  %58 = load ptr, ptr %6, align 8
  %59 = getelementptr inbounds nuw %struct.PlaceHolderInfo, ptr %58, i32 0, i32 2
  store ptr %57, ptr %59, align 8
  %60 = load ptr, ptr %6, align 8
  %61 = getelementptr inbounds nuw %struct.PlaceHolderInfo, ptr %60, i32 0, i32 2
  %62 = load ptr, ptr %61, align 8
  %63 = getelementptr inbounds nuw %struct.PlaceHolderVar, ptr %62, i32 0, i32 3
  store ptr null, ptr %63, align 8
  %64 = load ptr, ptr %4, align 8
  %65 = load ptr, ptr %5, align 8
  %66 = getelementptr inbounds nuw %struct.PlaceHolderVar, ptr %65, i32 0, i32 1
  %67 = load ptr, ptr %66, align 8
  %68 = call ptr @pull_varnos(ptr noundef %64, ptr noundef %67)
  store ptr %68, ptr %7, align 8
  %69 = load ptr, ptr %7, align 8
  %70 = load ptr, ptr %5, align 8
  %71 = getelementptr inbounds nuw %struct.PlaceHolderVar, ptr %70, i32 0, i32 2
  %72 = load ptr, ptr %71, align 8
  %73 = call ptr @bms_difference(ptr noundef %69, ptr noundef %72)
  %74 = load ptr, ptr %6, align 8
  %75 = getelementptr inbounds nuw %struct.PlaceHolderInfo, ptr %74, i32 0, i32 4
  store ptr %73, ptr %75, align 8
  %76 = load ptr, ptr %7, align 8
  %77 = load ptr, ptr %5, align 8
  %78 = getelementptr inbounds nuw %struct.PlaceHolderVar, ptr %77, i32 0, i32 2
  %79 = load ptr, ptr %78, align 8
  %80 = call ptr @bms_int_members(ptr noundef %76, ptr noundef %79)
  %81 = load ptr, ptr %6, align 8
  %82 = getelementptr inbounds nuw %struct.PlaceHolderInfo, ptr %81, i32 0, i32 3
  store ptr %80, ptr %82, align 8
  %83 = load ptr, ptr %6, align 8
  %84 = getelementptr inbounds nuw %struct.PlaceHolderInfo, ptr %83, i32 0, i32 3
  %85 = load ptr, ptr %84, align 8
  %86 = icmp eq ptr %85, null
  br i1 %86, label %87, label %94

87:                                               ; preds = %49
  %88 = load ptr, ptr %5, align 8
  %89 = getelementptr inbounds nuw %struct.PlaceHolderVar, ptr %88, i32 0, i32 2
  %90 = load ptr, ptr %89, align 8
  %91 = call ptr @bms_copy(ptr noundef %90)
  %92 = load ptr, ptr %6, align 8
  %93 = getelementptr inbounds nuw %struct.PlaceHolderInfo, ptr %92, i32 0, i32 3
  store ptr %91, ptr %93, align 8
  br label %94

94:                                               ; preds = %87, %49
  %95 = load ptr, ptr %6, align 8
  %96 = getelementptr inbounds nuw %struct.PlaceHolderInfo, ptr %95, i32 0, i32 5
  store ptr null, ptr %96, align 8
  %97 = load ptr, ptr %5, align 8
  %98 = getelementptr inbounds nuw %struct.PlaceHolderVar, ptr %97, i32 0, i32 1
  %99 = load ptr, ptr %98, align 8
  %100 = call i32 @exprType(ptr noundef %99)
  %101 = load ptr, ptr %5, align 8
  %102 = getelementptr inbounds nuw %struct.PlaceHolderVar, ptr %101, i32 0, i32 1
  %103 = load ptr, ptr %102, align 8
  %104 = call i32 @exprTypmod(ptr noundef %103)
  %105 = call i32 @get_typavgwidth(i32 noundef %100, i32 noundef %104)
  %106 = load ptr, ptr %6, align 8
  %107 = getelementptr inbounds nuw %struct.PlaceHolderInfo, ptr %106, i32 0, i32 6
  store i32 %105, ptr %107, align 8
  %108 = load ptr, ptr %4, align 8
  %109 = getelementptr inbounds nuw %struct.PlannerInfo, ptr %108, i32 0, i32 35
  %110 = load ptr, ptr %109, align 8
  %111 = load ptr, ptr %6, align 8
  %112 = call ptr @lappend(ptr noundef %110, ptr noundef %111)
  %113 = load ptr, ptr %4, align 8
  %114 = getelementptr inbounds nuw %struct.PlannerInfo, ptr %113, i32 0, i32 35
  store ptr %112, ptr %114, align 8
  %115 = load ptr, ptr %6, align 8
  %116 = getelementptr inbounds nuw %struct.PlaceHolderInfo, ptr %115, i32 0, i32 1
  %117 = load i32, ptr %116, align 4
  %118 = load ptr, ptr %4, align 8
  %119 = getelementptr inbounds nuw %struct.PlannerInfo, ptr %118, i32 0, i32 37
  %120 = load i32, ptr %119, align 8
  %121 = icmp uge i32 %117, %120
  br i1 %121, label %122, label %175

122:                                              ; preds = %94
  call void @llvm.lifetime.start.p0(i64 4, ptr %9) #6
  %123 = load ptr, ptr %4, align 8
  %124 = getelementptr inbounds nuw %struct.PlannerInfo, ptr %123, i32 0, i32 37
  %125 = load i32, ptr %124, align 8
  %126 = icmp ne i32 %125, 0
  br i1 %126, label %127, label %132

127:                                              ; preds = %122
  %128 = load ptr, ptr %4, align 8
  %129 = getelementptr inbounds nuw %struct.PlannerInfo, ptr %128, i32 0, i32 37
  %130 = load i32, ptr %129, align 8
  %131 = mul i32 %130, 2
  br label %133

132:                                              ; preds = %122
  br label %133

133:                                              ; preds = %132, %127
  %134 = phi i32 [ %131, %127 ], [ 8, %132 ]
  store i32 %134, ptr %9, align 4
  br label %135

135:                                              ; preds = %141, %133
  %136 = load ptr, ptr %6, align 8
  %137 = getelementptr inbounds nuw %struct.PlaceHolderInfo, ptr %136, i32 0, i32 1
  %138 = load i32, ptr %137, align 4
  %139 = load i32, ptr %9, align 4
  %140 = icmp uge i32 %138, %139
  br i1 %140, label %141, label %144

141:                                              ; preds = %135
  %142 = load i32, ptr %9, align 4
  %143 = mul i32 %142, 2
  store i32 %143, ptr %9, align 4
  br label %135, !llvm.loop !6

144:                                              ; preds = %135
  %145 = load ptr, ptr %4, align 8
  %146 = getelementptr inbounds nuw %struct.PlannerInfo, ptr %145, i32 0, i32 36
  %147 = load ptr, ptr %146, align 8
  %148 = icmp ne ptr %147, null
  br i1 %148, label %149, label %164

149:                                              ; preds = %144
  %150 = load ptr, ptr %4, align 8
  %151 = getelementptr inbounds nuw %struct.PlannerInfo, ptr %150, i32 0, i32 36
  %152 = load ptr, ptr %151, align 8
  %153 = load ptr, ptr %4, align 8
  %154 = getelementptr inbounds nuw %struct.PlannerInfo, ptr %153, i32 0, i32 37
  %155 = load i32, ptr %154, align 8
  %156 = sext i32 %155 to i64
  %157 = mul i64 8, %156
  %158 = load i32, ptr %9, align 4
  %159 = sext i32 %158 to i64
  %160 = mul i64 8, %159
  %161 = call ptr @repalloc0(ptr noundef %152, i64 noundef %157, i64 noundef %160)
  %162 = load ptr, ptr %4, align 8
  %163 = getelementptr inbounds nuw %struct.PlannerInfo, ptr %162, i32 0, i32 36
  store ptr %161, ptr %163, align 8
  br label %171

164:                                              ; preds = %144
  %165 = load i32, ptr %9, align 4
  %166 = sext i32 %165 to i64
  %167 = mul i64 8, %166
  %168 = call ptr @palloc0(i64 noundef %167)
  %169 = load ptr, ptr %4, align 8
  %170 = getelementptr inbounds nuw %struct.PlannerInfo, ptr %169, i32 0, i32 36
  store ptr %168, ptr %170, align 8
  br label %171

171:                                              ; preds = %164, %149
  %172 = load i32, ptr %9, align 4
  %173 = load ptr, ptr %4, align 8
  %174 = getelementptr inbounds nuw %struct.PlannerInfo, ptr %173, i32 0, i32 37
  store i32 %172, ptr %174, align 8
  call void @llvm.lifetime.end.p0(i64 4, ptr %9) #6
  br label %175

175:                                              ; preds = %171, %94
  %176 = load ptr, ptr %6, align 8
  %177 = load ptr, ptr %4, align 8
  %178 = getelementptr inbounds nuw %struct.PlannerInfo, ptr %177, i32 0, i32 36
  %179 = load ptr, ptr %178, align 8
  %180 = load ptr, ptr %6, align 8
  %181 = getelementptr inbounds nuw %struct.PlaceHolderInfo, ptr %180, i32 0, i32 1
  %182 = load i32, ptr %181, align 4
  %183 = zext i32 %182 to i64
  %184 = getelementptr inbounds nuw ptr, ptr %179, i64 %183
  store ptr %176, ptr %184, align 8
  %185 = load ptr, ptr %4, align 8
  %186 = load ptr, ptr %6, align 8
  %187 = getelementptr inbounds nuw %struct.PlaceHolderInfo, ptr %186, i32 0, i32 2
  %188 = load ptr, ptr %187, align 8
  %189 = getelementptr inbounds nuw %struct.PlaceHolderVar, ptr %188, i32 0, i32 1
  %190 = load ptr, ptr %189, align 8
  call void @find_placeholders_in_expr(ptr noundef %185, ptr noundef %190)
  %191 = load ptr, ptr %6, align 8
  store ptr %191, ptr %3, align 8
  store i32 1, ptr %8, align 4
  br label %192

192:                                              ; preds = %175, %31
  call void @llvm.lifetime.end.p0(i64 8, ptr %7) #6
  call void @llvm.lifetime.end.p0(i64 8, ptr %6) #6
  %193 = load ptr, ptr %3, align 8
  ret ptr %193
}