; Function Attrs: nounwind uwtable
define dso_local ptr @find_placeholder_info(ptr noundef %0, ptr noundef %1) local_unnamed_addr #0 {
  %3 = getelementptr inbounds nuw i8, ptr %1, i64 32
  %4 = load i32, ptr %3, align 8
  %5 = getelementptr inbounds nuw i8, ptr %0, i64 296
  %6 = load i32, ptr %5, align 8
  %7 = icmp ult i32 %4, %6
  br i1 %7, label %8, label %.thread

8:                                                ; preds = %2
  %9 = getelementptr inbounds nuw i8, ptr %0, i64 288
  %10 = load ptr, ptr %9, align 8
  %11 = zext i32 %4 to i64
  %12 = getelementptr inbounds nuw ptr, ptr %10, i64 %11
  %13 = load ptr, ptr %12, align 8
  %.not = icmp eq ptr %13, null
  br i1 %.not, label %.thread, label %97

.thread:                                          ; preds = %2, %8
  %14 = getelementptr inbounds nuw i8, ptr %0, i64 601
  %15 = load i8, ptr %14, align 1, !range !4, !noundef !5
  %16 = trunc nuw i8 %15 to i1
  br i1 %16, label %17, label %20

17:                                               ; preds = %.thread
  %18 = tail call zeroext i1 @errstart_cold(i32 noundef 21, ptr noundef null) #6
  tail call void @llvm.assume(i1 %18)
  %19 = tail call i32 (ptr, ...) @errmsg_internal(ptr noundef nonnull @.str) #5
  tail call void @errfinish(ptr noundef nonnull @.str.1, i32 noundef 104, ptr noundef nonnull @__func__.find_placeholder_info) #5
  unreachable

20:                                               ; preds = %.thread
  %21 = tail call noundef ptr @palloc0(i64 noundef 48) #5
  store i32 323, ptr %21, align 4
  %22 = load i32, ptr %3, align 8
  %23 = getelementptr inbounds nuw i8, ptr %21, i64 4
  store i32 %22, ptr %23, align 4
  %24 = tail call ptr @copyObjectImpl(ptr noundef nonnull %1) #5
  %25 = getelementptr inbounds nuw i8, ptr %21, i64 8
  store ptr %24, ptr %25, align 8
  %26 = getelementptr inbounds nuw i8, ptr %24, i64 24
  store ptr null, ptr %26, align 8
  %27 = getelementptr inbounds nuw i8, ptr %1, i64 8
  %28 = load ptr, ptr %27, align 8
  %29 = tail call ptr @pull_varnos(ptr noundef nonnull %0, ptr noundef %28) #5
  %30 = getelementptr inbounds nuw i8, ptr %1, i64 16
  %31 = load ptr, ptr %30, align 8
  %32 = tail call ptr @bms_difference(ptr noundef %29, ptr noundef %31) #5
  %33 = getelementptr inbounds nuw i8, ptr %21, i64 24
  store ptr %32, ptr %33, align 8
  %34 = load ptr, ptr %30, align 8
  %35 = tail call ptr @bms_int_members(ptr noundef %29, ptr noundef %34) #5
  %36 = getelementptr inbounds nuw i8, ptr %21, i64 16
  store ptr %35, ptr %36, align 8
  %37 = icmp eq ptr %35, null
  br i1 %37, label %38, label %41

38:                                               ; preds = %20
  %39 = load ptr, ptr %30, align 8
  %40 = tail call ptr @bms_copy(ptr noundef %39) #5
  store ptr %40, ptr %36, align 8
  br label %41

41:                                               ; preds = %38, %20
  %42 = getelementptr inbounds nuw i8, ptr %21, i64 32
  store ptr null, ptr %42, align 8
  %43 = load ptr, ptr %27, align 8
  %44 = tail call i32 @exprType(ptr noundef %43) #5
  %45 = load ptr, ptr %27, align 8
  %46 = tail call i32 @exprTypmod(ptr noundef %45) #5
  %47 = tail call i32 @get_typavgwidth(i32 noundef %44, i32 noundef %46) #5
  %48 = getelementptr inbounds nuw i8, ptr %21, i64 40
  store i32 %47, ptr %48, align 8
  %49 = getelementptr inbounds nuw i8, ptr %0, i64 280
  %50 = load ptr, ptr %49, align 8
  %51 = tail call ptr @lappend(ptr noundef %50, ptr noundef nonnull %21) #5
  store ptr %51, ptr %49, align 8
  %52 = load i32, ptr %23, align 4
  %53 = load i32, ptr %5, align 8
  %.not57 = icmp ult i32 %52, %53
  br i1 %.not57, label %._crit_edge, label %54

._crit_edge:                                      ; preds = %41
  %.phi.trans.insert = getelementptr inbounds nuw i8, ptr %0, i64 288
  %.pre = load ptr, ptr %.phi.trans.insert, align 8
  br label %72

54:                                               ; preds = %41
  %.not58 = icmp eq i32 %53, 0
  %55 = shl i32 %53, 1
  %spec.select = select i1 %.not58, i32 8, i32 %55
  br label %56

56:                                               ; preds = %56, %54
  %.0 = phi i32 [ %spec.select, %54 ], [ %57, %56 ]
  %.not59 = icmp ult i32 %52, %.0
  %57 = shl i32 %.0, 1
  br i1 %.not59, label %58, label %56, !llvm.loop !6

58:                                               ; preds = %56
  %59 = getelementptr inbounds nuw i8, ptr %0, i64 288
  %60 = load ptr, ptr %59, align 8
  %.not60 = icmp eq ptr %60, null
  br i1 %.not60, label %67, label %61

61:                                               ; preds = %58
  %62 = sext i32 %53 to i64
  %63 = shl nsw i64 %62, 3
  %64 = sext i32 %.0 to i64
  %65 = shl nsw i64 %64, 3
  %66 = tail call ptr @repalloc0(ptr noundef nonnull %60, i64 noundef %63, i64 noundef %65) #5
  br label %71

67:                                               ; preds = %58
  %68 = sext i32 %.0 to i64
  %69 = shl nsw i64 %68, 3
  %70 = tail call ptr @palloc0(i64 noundef %69) #5
  br label %71

71:                                               ; preds = %67, %61
  %storemerge = phi ptr [ %70, %67 ], [ %66, %61 ]
  store ptr %storemerge, ptr %59, align 8
  store i32 %.0, ptr %5, align 8
  %.pre71 = load i32, ptr %23, align 4
  br label %72

72:                                               ; preds = %._crit_edge, %71
  %73 = phi i32 [ %52, %._crit_edge ], [ %.pre71, %71 ]
  %74 = phi ptr [ %.pre, %._crit_edge ], [ %storemerge, %71 ]
  %75 = zext i32 %73 to i64
  %76 = getelementptr inbounds nuw ptr, ptr %74, i64 %75
  store ptr %21, ptr %76, align 8
  %77 = load ptr, ptr %25, align 8
  %78 = getelementptr inbounds nuw i8, ptr %77, i64 8
  %79 = load ptr, ptr %78, align 8
  %80 = tail call ptr @pull_var_clause(ptr noundef %79, i32 noundef 26) #5
  %81 = getelementptr inbounds nuw i8, ptr %80, i64 4
  %.not.i = icmp eq ptr %80, null
  br i1 %.not.i, label %find_placeholders_in_expr.exit, label %.lr.ph

.lr.ph:                                           ; preds = %72
  %82 = getelementptr inbounds nuw i8, ptr %80, i64 16
  %83 = load i32, ptr %81, align 4
  %84 = icmp sgt i32 %83, 0
  br i1 %84, label %.lr.ph69, label %find_placeholders_in_expr.exit

.lr.ph69:                                         ; preds = %.lr.ph, %93
  %85 = phi i32 [ %94, %93 ], [ %83, %.lr.ph ]
  %indvars.iv = phi i64 [ %indvars.iv.next, %93 ], [ 0, %.lr.ph ]
  %86 = load ptr, ptr %82, align 8
  %87 = getelementptr inbounds nuw %union.ListCell, ptr %86, i64 %indvars.iv
  %88 = load ptr, ptr %87, align 8
  %89 = load i32, ptr %88, align 4
  %90 = icmp eq i32 %89, 318
  br i1 %90, label %91, label %93

91:                                               ; preds = %.lr.ph69
  %92 = tail call ptr @find_placeholder_info(ptr noundef nonnull %0, ptr noundef nonnull %88)
  %.pre72 = load i32, ptr %81, align 4
  br label %93

93:                                               ; preds = %91, %.lr.ph69
  %94 = phi i32 [ %.pre72, %91 ], [ %85, %.lr.ph69 ]
  %indvars.iv.next = add nuw nsw i64 %indvars.iv, 1
  %95 = sext i32 %94 to i64
  %96 = icmp slt i64 %indvars.iv.next, %95
  br i1 %96, label %.lr.ph69, label %find_placeholders_in_expr.exit

find_placeholders_in_expr.exit:                   ; preds = %93, %.lr.ph, %72
  tail call void @list_free(ptr noundef %80) #5
  br label %97

97:                                               ; preds = %8, %find_placeholders_in_expr.exit
  %.052 = phi ptr [ %21, %find_placeholders_in_expr.exit ], [ %13, %8 ]
  ret ptr %.052
}